target datalayout = "e-m:e-p270:32:32-p271:32:32-p272:64:64-i64:64-i128:128-f80:128-n8:16:32:64-S128"
target triple = "x86_64-pc-linux-gnu"

%"struct.cv::impl::(anonymous namespace)::CvtHelper" = type { %"class.cv::Mat", %"class.cv::Mat", i32, i32, %"class.cv::Size_" }
%"class.cv::Mat" = type { i32, i32, i32, i32, ptr, ptr, ptr, ptr, ptr, ptr, %"struct.cv::MatSize", %"struct.cv::MatStep" }
%"struct.cv::MatSize" = type { ptr }
%"struct.cv::MatStep" = type { ptr, [2 x i64] }
%"class.cv::Size_" = type { i32, i32 }

; Function Attrs: inlinehint mustprogress nounwind uwtable
define internal void @_ZN2cv4impl12_GLOBAL__N_19CvtHelperINS1_3SetILi3ELi4ELin1EEENS3_ILi3ELin1ELin1EEENS3_ILi0ELi5ELin1EEELNS1_10SizePolicyE4EED2Ev(ptr noundef nonnull align 8 dereferenceable(208) %0) unnamed_addr #5 align 2 {
  %2 = alloca ptr, align 8
  store ptr %0, ptr %2, align 8, !tbaa !139
  %3 = load ptr, ptr %2, align 8
  %4 = getelementptr inbounds nuw %"struct.cv::impl::(anonymous namespace)::CvtHelper", ptr %3, i32 0, i32 1
  call void @_ZN2cv3MatD1Ev(ptr noundef nonnull align 8 dereferenceable(96) %4) #12
  %5 = getelementptr inbounds nuw %"struct.cv::impl::(anonymous namespace)::CvtHelper", ptr %3, i32 0, i32 0
  call void @_ZN2cv3MatD1Ev(ptr noundef nonnull align 8 dereferenceable(96) %5) #12
  ret void
}

; Function Attrs: inlinehint mustprogress nounwind uwtable
define linkonce_odr hidden noundef i64 @_ZNK2cv7MatStepcvmEv(ptr noundef nonnull align 8 dereferenceable(24) %0) #5 comdat align 2 {
  %2 = alloca ptr, align 8
  store ptr %0, ptr %2, align 8, !tbaa !142
  %3 = load ptr, ptr %2, align 8
  %4 = getelementptr inbounds nuw %"struct.cv::MatStep", ptr %3, i32 0, i32 1
  %5 = getelementptr inbounds [2 x i64], ptr %4, i64 0, i64 0
  %6 = load i64, ptr %5, align 8, !tbaa !3
  ret i64 %6
}

; Function Attrs: mustprogress uwtable
define hidden void @_ZN2cv15cvtColorBGR2LuvERKNS_11_InputArrayERKNS_12_OutputArrayEbb(ptr noundef nonnull align 8 dereferenceable(24) %0, ptr noundef nonnull align 8 dereferenceable(24) %1, i1 noundef zeroext %2, i1 noundef zeroext %3) #1 personality ptr @__gxx_personality_v0 {
  %5 = alloca ptr, align 8
  %6 = alloca ptr, align 8
  %7 = alloca i8, align 1
  %8 = alloca i8, align 1
  %9 = alloca %"struct.cv::impl::(anonymous namespace)::CvtHelper", align 8
  %10 = alloca ptr, align 8
  %11 = alloca i32, align 4
  store ptr %0, ptr %5, align 8, !tbaa !121
  store ptr %1, ptr %6, align 8, !tbaa !123
  %12 = zext i1 %2 to i8
  store i8 %12, ptr %7, align 1, !tbaa !21
  %13 = zext i1 %3 to i8
  store i8 %13, ptr %8, align 1, !tbaa !21
  call void @llvm.lifetime.start.p0(i64 208, ptr %9) #12
  %14 = load ptr, ptr %5, align 8, !tbaa !121
  %15 = load ptr, ptr %6, align 8, !tbaa !123
  call void @_ZN2cv4impl12_GLOBAL__N_19CvtHelperINS1_3SetILi3ELi4ELin1EEENS3_ILi3ELin1ELin1EEENS3_ILi0ELi5ELin1EEELNS1_10SizePolicyE4EEC2ERKNS_11_InputArrayERKNS_12_OutputArrayEi(ptr noundef nonnull align 8 dereferenceable(208) %9, ptr noundef nonnull align 8 dereferenceable(24) %14, ptr noundef nonnull align 8 dereferenceable(24) %15, i32 noundef 3)
  %16 = getelementptr inbounds nuw %"struct.cv::impl::(anonymous namespace)::CvtHelper", ptr %9, i32 0, i32 0
  %17 = getelementptr inbounds nuw %"class.cv::Mat", ptr %16, i32 0, i32 4
  %18 = load ptr, ptr %17, align 8, !tbaa !125
  %19 = getelementptr inbounds nuw %"struct.cv::impl::(anonymous namespace)::CvtHelper", ptr %9, i32 0, i32 0
  %20 = getelementptr inbounds nuw %"class.cv::Mat", ptr %19, i32 0, i32 11
  %21 = invoke noundef i64 @_ZNK2cv7MatStepcvmEv(ptr noundef nonnull align 8 dereferenceable(24) %20)
          to label %22 unwind label %45

22:                                               ; preds = %4
  %23 = getelementptr inbounds nuw %"struct.cv::impl::(anonymous namespace)::CvtHelper", ptr %9, i32 0, i32 1
  %24 = getelementptr inbounds nuw %"class.cv::Mat", ptr %23, i32 0, i32 4
  %25 = load ptr, ptr %24, align 8, !tbaa !134
  %26 = getelementptr inbounds nuw %"struct.cv::impl::(anonymous namespace)::CvtHelper", ptr %9, i32 0, i32 1
  %27 = getelementptr inbounds nuw %"class.cv::Mat", ptr %26, i32 0, i32 11
  %28 = invoke noundef i64 @_ZNK2cv7MatStepcvmEv(ptr noundef nonnull align 8 dereferenceable(24) %27)
          to label %29 unwind label %45

29:                                               ; preds = %22
  %30 = getelementptr inbounds nuw %"struct.cv::impl::(anonymous namespace)::CvtHelper", ptr %9, i32 0, i32 0
  %31 = getelementptr inbounds nuw %"class.cv::Mat", ptr %30, i32 0, i32 3
  %32 = load i32, ptr %31, align 4, !tbaa !135
  %33 = getelementptr inbounds nuw %"struct.cv::impl::(anonymous namespace)::CvtHelper", ptr %9, i32 0, i32 0
  %34 = getelementptr inbounds nuw %"class.cv::Mat", ptr %33, i32 0, i32 2
  %35 = load i32, ptr %34, align 8, !tbaa !136
  %36 = getelementptr inbounds nuw %"struct.cv::impl::(anonymous namespace)::CvtHelper", ptr %9, i32 0, i32 2
  %37 = load i32, ptr %36, align 8, !tbaa !137
  %38 = getelementptr inbounds nuw %"struct.cv::impl::(anonymous namespace)::CvtHelper", ptr %9, i32 0, i32 3
  %39 = load i32, ptr %38, align 4, !tbaa !138
  %40 = load i8, ptr %7, align 1, !tbaa !21, !range !23, !noundef !24
  %41 = trunc i8 %40 to i1
  %42 = load i8, ptr %8, align 1, !tbaa !21, !range !23, !noundef !24
  %43 = trunc i8 %42 to i1
  invoke void @_ZN2cv3hal11cvtBGRtoLabEPKhmPhmiiiibbb(ptr noundef %18, i64 noundef %21, ptr noundef %25, i64 noundef %28, i32 noundef %32, i32 noundef %35, i32 noundef %37, i32 noundef %39, i1 noundef zeroext %41, i1 noundef zeroext false, i1 noundef zeroext %43)
          to label %44 unwind label %45

44:                                               ; preds = %29
  call void @_ZN2cv4impl12_GLOBAL__N_19CvtHelperINS1_3SetILi3ELi4ELin1EEENS3_ILi3ELin1ELin1EEENS3_ILi0ELi5ELin1EEELNS1_10SizePolicyE4EED2Ev(ptr noundef nonnull align 8 dereferenceable(208) %9) #12
  call void @llvm.lifetime.end.p0(i64 208, ptr %9) #12
  ret void

45:                                               ; preds = %29, %22, %4
  %46 = landingpad { ptr, i32 }
          cleanup
  %47 = extractvalue { ptr, i32 } %46, 0
  store ptr %47, ptr %10, align 8
  %48 = extractvalue { ptr, i32 } %46, 1
  store i32 %48, ptr %11, align 4
  call void @_ZN2cv4impl12_GLOBAL__N_19CvtHelperINS1_3SetILi3ELi4ELin1EEENS3_ILi3ELin1ELin1EEENS3_ILi0ELi5ELin1EEELNS1_10SizePolicyE4EED2Ev(ptr noundef nonnull align 8 dereferenceable(208) %9) #12
  call void @llvm.lifetime.end.p0(i64 208, ptr %9) #12
  br label %49

49:                                               ; preds = %45
  %50 = load ptr, ptr %10, align 8
  %51 = load i32, ptr %11, align 4
  %52 = insertvalue { ptr, i32 } poison, ptr %50, 0
  %53 = insertvalue { ptr, i32 } %52, i32 %51, 1
  resume { ptr, i32 } %53
}