; Function Attrs: mustprogress uwtable
define hidden void @_ZN2cv15cvtColorBGR2LuvERKNS_11_InputArrayERKNS_12_OutputArrayEbb(ptr noundef nonnull align 8 dereferenceable(24) %0, ptr noundef nonnull align 8 dereferenceable(24) %1, i1 noundef zeroext %2, i1 noundef zeroext %3) local_unnamed_addr #5 personality ptr @__gxx_personality_v0 {
  %5 = alloca %"struct.cv::impl::(anonymous namespace)::CvtHelper", align 8
  call void @llvm.lifetime.start.p0(i64 208, ptr nonnull %5) #22
  call fastcc void @_ZN2cv4impl12_GLOBAL__N_19CvtHelperINS1_3SetILi3ELi4ELin1EEENS3_ILi3ELin1ELin1EEENS3_ILi0ELi5ELin1EEELNS1_10SizePolicyE4EEC2ERKNS_11_InputArrayERKNS_12_OutputArrayEi(ptr noundef nonnull align 8 dereferenceable(208) %5, ptr noundef nonnull align 8 dereferenceable(24) %0, ptr noundef nonnull align 8 dereferenceable(24) %1)
  %6 = getelementptr inbounds nuw i8, ptr %5, i64 16
  %7 = load ptr, ptr %6, align 8, !tbaa !213
  %8 = getelementptr inbounds nuw i8, ptr %5, i64 80
  %9 = load i64, ptr %8, align 8, !tbaa !223
  %10 = getelementptr inbounds nuw i8, ptr %5, i64 112
  %11 = load ptr, ptr %10, align 8, !tbaa !224
  %12 = getelementptr inbounds nuw i8, ptr %5, i64 176
  %13 = load i64, ptr %12, align 8, !tbaa !223
  %14 = getelementptr inbounds nuw i8, ptr %5, i64 12
  %15 = load i32, ptr %14, align 4, !tbaa !225
  %16 = getelementptr inbounds nuw i8, ptr %5, i64 8
  %17 = load i32, ptr %16, align 8, !tbaa !226
  %18 = getelementptr inbounds nuw i8, ptr %5, i64 192
  %19 = load i32, ptr %18, align 8, !tbaa !227
  %20 = getelementptr inbounds nuw i8, ptr %5, i64 196
  %21 = load i32, ptr %20, align 4, !tbaa !228
  invoke void @_ZN2cv3hal11cvtBGRtoLabEPKhmPhmiiiibbb(ptr noundef %7, i64 noundef %9, ptr noundef %11, i64 noundef %13, i32 noundef %15, i32 noundef %17, i32 noundef %19, i32 noundef %21, i1 noundef zeroext %2, i1 noundef zeroext false, i1 noundef zeroext %3)
          to label %22 unwind label %24

22:                                               ; preds = %4
  %23 = getelementptr inbounds nuw i8, ptr %5, i64 96
  call void @_ZN2cv3MatD1Ev(ptr noundef nonnull align 8 dereferenceable(96) %23) #22
  call void @_ZN2cv3MatD1Ev(ptr noundef nonnull align 8 dereferenceable(208) %5) #22
  call void @llvm.lifetime.end.p0(i64 208, ptr nonnull %5) #22
  ret void

24:                                               ; preds = %4
  %25 = landingpad { ptr, i32 }
          cleanup
  %26 = getelementptr inbounds nuw i8, ptr %5, i64 96
  call void @_ZN2cv3MatD1Ev(ptr noundef nonnull align 8 dereferenceable(96) %26) #22
  call void @_ZN2cv3MatD1Ev(ptr noundef nonnull align 8 dereferenceable(208) %5) #22
  call void @llvm.lifetime.end.p0(i64 208, ptr nonnull %5) #22
  resume { ptr, i32 } %25
}